; ModuleID = '44/1317.c'
source_filename = "44/1317.c"
target datalayout = "e-m:e-p270:32:32-p271:32:32-p272:64:64-i64:64-f80:128-n8:16:32:64-S128"
target triple = "x86_64-pc-linux-gnu"

@.str = private unnamed_addr constant [3 x i8] c"%d\00", align 1
@.str.1 = private unnamed_addr constant [4 x i8] c"%d\0A\00", align 1

; Function Attrs: noinline nounwind uwtable
define dso_local i32 @reverse(i32 %0) #0 {
  %2 = alloca i32, align 4
  %3 = alloca i32, align 4
  %4 = alloca i32, align 4
  %5 = alloca i32, align 4
  %6 = alloca i32, align 4
  %7 = alloca i32, align 4
  %8 = alloca i32, align 4
  %9 = alloca [20 x i32], align 16
  store i32 %0, i32* %2, align 4
  store i32 0, i32* %3, align 4
  br label %10

10:                                               ; preds = %21, %1
  %11 = load i32, i32* %6, align 4
  %12 = icmp ne i32 %11, 0
  br i1 %12, label %13, label %24

13:                                               ; preds = %10
  %14 = load i32, i32* %2, align 4
  %15 = sitofp i32 %14 to double
  %16 = load i32, i32* %3, align 4
  %17 = sitofp i32 %16 to double
  %18 = call double @pow(double 1.000000e+01, double %17) #3
  %19 = fdiv double %15, %18
  %20 = fptosi double %19 to i32
  store i32 %20, i32* %6, align 4
  br label %21

21:                                               ; preds = %13
  %22 = load i32, i32* %3, align 4
  %23 = add nsw i32 %22, 1
  store i32 %23, i32* %3, align 4
  br label %10

24:                                               ; preds = %10
  %25 = load i32, i32* %2, align 4
  %26 = sitofp i32 %25 to double
  %27 = load i32, i32* %3, align 4
  %28 = sub nsw i32 %27, 1
  %29 = sitofp i32 %28 to double
  %30 = call double @pow(double 1.000000e+01, double %29) #3
  %31 = fdiv double %26, %30
  %32 = fptosi double %31 to i32
  %33 = getelementptr inbounds [20 x i32], [20 x i32]* %9, i64 0, i64 0
  store i32 %32, i32* %33, align 16
  %34 = load i32, i32* %2, align 4
  store i32 %34, i32* %7, align 4
  store i32 1, i32* %4, align 4
  br label %35

35:                                               ; preds = %82, %24
  %36 = load i32, i32* %4, align 4
  %37 = load i32, i32* %3, align 4
  %38 = icmp slt i32 %36, %37
  br i1 %38, label %39, label %85

39:                                               ; preds = %35
  %40 = load i32, i32* %7, align 4
  %41 = sitofp i32 %40 to double
  %42 = load i32, i32* %4, align 4
  %43 = sub nsw i32 %42, 1
  %44 = sext i32 %43 to i64
  %45 = getelementptr inbounds [20 x i32], [20 x i32]* %9, i64 0, i64 %44
  %46 = load i32, i32* %45, align 4
  %47 = sitofp i32 %46 to double
  %48 = load i32, i32* %3, align 4
  %49 = load i32, i32* %4, align 4
  %50 = sub nsw i32 %48, %49
  %51 = sitofp i32 %50 to double
  %52 = call double @pow(double 1.000000e+01, double %51) #3
  %53 = fmul double %47, %52
  %54 = fsub double %41, %53
  %55 = load i32, i32* %3, align 4
  %56 = load i32, i32* %4, align 4
  %57 = sub nsw i32 %55, %56
  %58 = sub nsw i32 %57, 1
  %59 = sitofp i32 %58 to double
  %60 = call double @pow(double 1.000000e+01, double %59) #3
  %61 = fdiv double %54, %60
  %62 = fptosi double %61 to i32
  %63 = load i32, i32* %4, align 4
  %64 = sext i32 %63 to i64
  %65 = getelementptr inbounds [20 x i32], [20 x i32]* %9, i64 0, i64 %64
  store i32 %62, i32* %65, align 4
  %66 = load i32, i32* %4, align 4
  %67 = sub nsw i32 %66, 1
  %68 = sext i32 %67 to i64
  %69 = getelementptr inbounds [20 x i32], [20 x i32]* %9, i64 0, i64 %68
  %70 = load i32, i32* %69, align 4
  %71 = sitofp i32 %70 to double
  %72 = load i32, i32* %3, align 4
  %73 = load i32, i32* %4, align 4
  %74 = sub nsw i32 %72, %73
  %75 = sitofp i32 %74 to double
  %76 = call double @pow(double 1.000000e+01, double %75) #3
  %77 = fmul double %71, %76
  %78 = load i32, i32* %7, align 4
  %79 = sitofp i32 %78 to double
  %80 = fsub double %79, %77
  %81 = fptosi double %80 to i32
  store i32 %81, i32* %7, align 4
  br label %82

82:                                               ; preds = %39
  %83 = load i32, i32* %4, align 4
  %84 = add nsw i32 %83, 1
  store i32 %84, i32* %4, align 4
  br label %35

85:                                               ; preds = %35
  store i32 0, i32* %8, align 4
  %86 = load i32, i32* %3, align 4
  %87 = sub nsw i32 %86, 1
  store i32 %87, i32* %4, align 4
  store i32 0, i32* %5, align 4
  br label %88

88:                                               ; preds = %112, %85
  %89 = load i32, i32* %4, align 4
  %90 = icmp sge i32 %89, 0
  %91 = zext i1 %90 to i32
  %92 = load i32, i32* %5, align 4
  %93 = load i32, i32* %3, align 4
  %94 = icmp slt i32 %92, %93
  br i1 %94, label %95, label %117

95:                                               ; preds = %88
  %96 = load i32, i32* %4, align 4
  %97 = sext i32 %96 to i64
  %98 = getelementptr inbounds [20 x i32], [20 x i32]* %9, i64 0, i64 %97
  %99 = load i32, i32* %98, align 4
  %100 = sitofp i32 %99 to double
  %101 = load i32, i32* %3, align 4
  %102 = load i32, i32* %5, align 4
  %103 = sub nsw i32 %101, %102
  %104 = sub nsw i32 %103, 2
  %105 = sitofp i32 %104 to double
  %106 = call double @pow(double 1.000000e+01, double %105) #3
  %107 = fmul double %100, %106
  %108 = load i32, i32* %8, align 4
  %109 = sitofp i32 %108 to double
  %110 = fadd double %109, %107
  %111 = fptosi double %110 to i32
  store i32 %111, i32* %8, align 4
  br label %112

112:                                              ; preds = %95
  %113 = load i32, i32* %4, align 4
  %114 = add nsw i32 %113, -1
  store i32 %114, i32* %4, align 4
  %115 = load i32, i32* %5, align 4
  %116 = add nsw i32 %115, 1
  store i32 %116, i32* %5, align 4
  br label %88

117:                                              ; preds = %88
  %118 = load i32, i32* %8, align 4
  ret i32 %118
}

; Function Attrs: nounwind
declare dso_local double @pow(double, double) #1

; Function Attrs: noinline nounwind uwtable
define dso_local i32 @main() #0 {
  %1 = alloca i32, align 4
  %2 = alloca i32, align 4
  %3 = alloca [6 x i32], align 16
  store i32 0, i32* %1, align 4
  store i32 0, i32* %2, align 4
  br label %4

4:                                                ; preds = %12, %0
  %5 = load i32, i32* %2, align 4
  %6 = icmp slt i32 %5, 6
  br i1 %6, label %7, label %15

7:                                                ; preds = %4
  %8 = load i32, i32* %2, align 4
  %9 = sext i32 %8 to i64
  %10 = getelementptr inbounds [6 x i32], [6 x i32]* %3, i64 0, i64 %9
  %11 = call i32 (i8*, ...) @__isoc99_scanf(i8* getelementptr inbounds ([3 x i8], [3 x i8]* @.str, i64 0, i64 0), i32* %10)
  br label %12

12:                                               ; preds = %7
  %13 = load i32, i32* %2, align 4
  %14 = add nsw i32 %13, 1
  store i32 %14, i32* %2, align 4
  br label %4

15:                                               ; preds = %4
  store i32 0, i32* %2, align 4
  br label %16

16:                                               ; preds = %26, %15
  %17 = load i32, i32* %2, align 4
  %18 = icmp slt i32 %17, 6
  br i1 %18, label %19, label %29

19:                                               ; preds = %16
  %20 = load i32, i32* %2, align 4
  %21 = sext i32 %20 to i64
  %22 = getelementptr inbounds [6 x i32], [6 x i32]* %3, i64 0, i64 %21
  %23 = load i32, i32* %22, align 4
  %24 = call i32 @reverse(i32 %23)
  %25 = call i32 (i8*, ...) @printf(i8* getelementptr inbounds ([4 x i8], [4 x i8]* @.str.1, i64 0, i64 0), i32 %24)
  br label %26

26:                                               ; preds = %19
  %27 = load i32, i32* %2, align 4
  %28 = add nsw i32 %27, 1
  store i32 %28, i32* %2, align 4
  br label %16

29:                                               ; preds = %16
  %30 = load i32, i32* %1, align 4
  ret i32 %30
}

declare dso_local i32 @__isoc99_scanf(i8*, ...) #2

declare dso_local i32 @printf(i8*, ...) #2


!llvm.module.flags = !{!0}
!llvm.ident = !{!1}

!0 = !{i32 1, !"wchar_size", i32 4}
!1 = !{!"clang version 10.0.0-4ubuntu1 "}
